; Function Attrs: mustprogress uwtable
define void @_ZN2mu11ParserError5ResetEv(ptr noundef nonnull align 8 dereferenceable(112) %0) local_unnamed_addr #9 align 2 {
  %2 = getelementptr inbounds nuw i8, ptr %0, i64 8
  %3 = load i64, ptr %2, align 8, !tbaa !17
  %4 = tail call noundef nonnull align 8 dereferenceable(32) ptr @_ZNSt7__cxx1112basic_stringIcSt11char_traitsIcESaIcEE10_M_replaceEmmPKcm(ptr noundef nonnull align 8 dereferenceable(32) %0, i64 noundef 0, i64 noundef %3, ptr noundef nonnull @.str.53, i64 noundef 0)
  %5 = getelementptr inbounds nuw i8, ptr %0, i64 32
  %6 = getelementptr inbounds nuw i8, ptr %0, i64 40
  %7 = load i64, ptr %6, align 8, !tbaa !17
  %8 = tail call noundef nonnull align 8 dereferenceable(32) ptr @_ZNSt7__cxx1112basic_stringIcSt11char_traitsIcESaIcEE10_M_replaceEmmPKcm(ptr noundef nonnull align 8 dereferenceable(32) %5, i64 noundef 0, i64 noundef %7, ptr noundef nonnull @.str.53, i64 noundef 0)
  %9 = getelementptr inbounds nuw i8, ptr %0, i64 64
  %10 = getelementptr inbounds nuw i8, ptr %0, i64 72
  %11 = load i64, ptr %10, align 8, !tbaa !17
  %12 = tail call noundef nonnull align 8 dereferenceable(32) ptr @_ZNSt7__cxx1112basic_stringIcSt11char_traitsIcESaIcEE10_M_replaceEmmPKcm(ptr noundef nonnull align 8 dereferenceable(32) %9, i64 noundef 0, i64 noundef %11, ptr noundef nonnull @.str.53, i64 noundef 0)
  %13 = getelementptr inbounds nuw i8, ptr %0, i64 96
  store i32 -1, ptr %13, align 8, !tbaa !33
  %14 = getelementptr inbounds nuw i8, ptr %0, i64 100
  store i32 -1, ptr %14, align 4, !tbaa !38
  ret void
}